; Function Attrs: nounwind uwtable
define ptr @l_Lean_PersistentHashMap_forM___at_Lean_SMap_instForInProd___spec__12___rarg(ptr noundef readnone captures(none) %0, ptr noundef readnone captures(none) %1, ptr noundef readnone captures(none) %2, ptr noundef readnone captures(none) %3, ptr noundef %4, ptr noundef %5, ptr noundef %6, ptr noundef %7) local_unnamed_addr #0 {
  tail call void @lean_inc_heartbeat() #3
  %9 = tail call noalias ptr @mi_malloc_small(i64 noundef 32) #3
  %10 = icmp eq ptr %9, null
  br i1 %10, label %11, label %lean_alloc_closure.exit

11:                                               ; preds = %8
  tail call void @lean_internal_panic_out_of_memory() #4
  unreachable

lean_alloc_closure.exit:                          ; preds = %8
  %12 = getelementptr inbounds nuw i8, ptr %9, i64 4
  store i32 1, ptr %9, align 4, !tbaa !10
  store i32 -184549344, ptr %12, align 4
  %13 = getelementptr inbounds nuw i8, ptr %9, i64 8
  store ptr @l_Lean_PersistentHashMap_forM___at_Lean_SMap_instForInProd___spec__4___rarg___lambda__1___boxed, ptr %13, align 8, !tbaa !4
  %14 = getelementptr inbounds nuw i8, ptr %9, i64 16
  store i16 5, ptr %14, align 8, !tbaa !13
  %15 = getelementptr inbounds nuw i8, ptr %9, i64 18
  store i16 1, ptr %15, align 2, !tbaa !13
  %16 = getelementptr inbounds nuw i8, ptr %9, i64 24
  store ptr %6, ptr %16, align 8, !tbaa !4
  %17 = tail call ptr @l_Lean_PersistentHashMap_foldlMAux___at_Lean_SMap_instForInProd___spec__14___rarg(ptr noundef %4, ptr nonnull poison, ptr nonnull poison, ptr nonnull poison, ptr noundef nonnull %9, ptr noundef %5, ptr noundef nonnull inttoptr (i64 1 to ptr), ptr noundef %7)
  ret ptr %17
}